target datalayout = "e-m:e-p270:32:32-p271:32:32-p272:64:64-i64:64-i128:128-f80:128-n8:16:32:64-S128"
target triple = "x86_64-pc-linux-gnu"

%struct.Agnode_s = type { %struct.Agobj_s, ptr, %struct.Agsubnode_s }
%struct.Agobj_s = type { %struct.Agtag_s, ptr }
%struct.Agtag_s = type { i32, i64 }
%struct.Agsubnode_s = type { %struct.dtlink_s_, %struct.dtlink_s_, ptr, ptr, ptr, ptr, ptr }
%struct.dtlink_s_ = type { ptr, %union.anon.0 }
%union.anon.0 = type { ptr }
%struct.Agnodeinfo_t = type { %struct.Agrec_s, i32, ptr }
%struct.Agrec_s = type { ptr, ptr }
%struct.Agedge_s = type { %struct.Agobj_s, %struct.dtlink_s_, %struct.dtlink_s_, ptr }

; Function Attrs: nounwind uwtable
define internal i32 @getval(ptr noundef %0) #0 {
  %2 = alloca ptr, align 8
  store ptr %0, ptr %2, align 8, !tbaa !26
  %3 = load ptr, ptr %2, align 8, !tbaa !26
  %4 = getelementptr inbounds nuw %struct.Agnode_s, ptr %3, i32 0, i32 0
  %5 = getelementptr inbounds nuw %struct.Agobj_s, ptr %4, i32 0, i32 1
  %6 = load ptr, ptr %5, align 8, !tbaa !35
  %7 = getelementptr inbounds nuw %struct.Agnodeinfo_t, ptr %6, i32 0, i32 1
  %8 = load i32, ptr %7, align 8, !tbaa !44
  ret i32 %8
}

; Function Attrs: nounwind uwtable
define internal void @setval(ptr noundef %0, i32 noundef %1) #0 {
  %3 = alloca ptr, align 8
  %4 = alloca i32, align 4
  store ptr %0, ptr %3, align 8, !tbaa !26
  store i32 %1, ptr %4, align 4, !tbaa !4
  %5 = load i32, ptr %4, align 4, !tbaa !4
  %6 = load ptr, ptr %3, align 8, !tbaa !26
  %7 = getelementptr inbounds nuw %struct.Agnode_s, ptr %6, i32 0, i32 0
  %8 = getelementptr inbounds nuw %struct.Agobj_s, ptr %7, i32 0, i32 1
  %9 = load ptr, ptr %8, align 8, !tbaa !35
  %10 = getelementptr inbounds nuw %struct.Agnodeinfo_t, ptr %9, i32 0, i32 1
  store i32 %5, ptr %10, align 8, !tbaa !44
  ret void
}

; Function Attrs: nounwind uwtable
define internal i32 @label(ptr noundef %0, i32 noundef %1, ptr noundef %2) #0 {
  %4 = alloca ptr, align 8
  %5 = alloca i32, align 4
  %6 = alloca ptr, align 8
  %7 = alloca ptr, align 8
  store ptr %0, ptr %4, align 8, !tbaa !26
  store i32 %1, ptr %5, align 4, !tbaa !4
  store ptr %2, ptr %6, align 8, !tbaa !29
  call void @llvm.lifetime.start.p0(i64 8, ptr %7) #11
  %8 = load ptr, ptr %4, align 8, !tbaa !26
  call void @setval(ptr noundef %8, i32 noundef 1)
  %9 = load i32, ptr %5, align 4, !tbaa !4
  %10 = add nsw i32 %9, 1
  store i32 %10, ptr %5, align 4, !tbaa !4
  %11 = load ptr, ptr %4, align 8, !tbaa !26
  %12 = getelementptr inbounds nuw %struct.Agnode_s, ptr %11, i32 0, i32 1
  %13 = load ptr, ptr %12, align 8, !tbaa !48
  %14 = load ptr, ptr %4, align 8, !tbaa !26
  %15 = call ptr @agfstedge(ptr noundef %13, ptr noundef %14)
  store ptr %15, ptr %7, align 8, !tbaa !49
  br label %16

16:                                               ; preds = %56, %3
  %17 = load ptr, ptr %7, align 8, !tbaa !49
  %18 = icmp ne ptr %17, null
  br i1 %18, label %19, label %63

19:                                               ; preds = %16
  %20 = load ptr, ptr %6, align 8, !tbaa !29
  %21 = load i32, ptr %20, align 4, !tbaa !4
  %22 = add nsw i32 %21, 1
  store i32 %22, ptr %20, align 4, !tbaa !4
  %23 = load ptr, ptr %7, align 8, !tbaa !49
  %24 = getelementptr inbounds nuw %struct.Agedge_s, ptr %23, i32 0, i32 3
  %25 = load ptr, ptr %24, align 8, !tbaa !51
  %26 = load ptr, ptr %4, align 8, !tbaa !26
  %27 = icmp eq ptr %25, %26
  br i1 %27, label %28, label %42

28:                                               ; preds = %19
  %29 = load ptr, ptr %7, align 8, !tbaa !49
  %30 = getelementptr inbounds nuw %struct.Agobj_s, ptr %29, i32 0, i32 0
  %31 = load i32, ptr %30, align 8
  %32 = and i32 %31, 3
  %33 = icmp eq i32 %32, 3
  br i1 %33, label %34, label %37

34:                                               ; preds = %28
  %35 = load ptr, ptr %7, align 8, !tbaa !49
  %36 = getelementptr inbounds %struct.Agedge_s, ptr %35, i64 -1
  br label %40

37:                                               ; preds = %28
  %38 = load ptr, ptr %7, align 8, !tbaa !49
  %39 = getelementptr inbounds %struct.Agedge_s, ptr %38, i64 1
  br label %40

40:                                               ; preds = %37, %34
  %41 = phi ptr [ %36, %34 ], [ %39, %37 ]
  store ptr %41, ptr %7, align 8, !tbaa !49
  br label %42

42:                                               ; preds = %40, %19
  %43 = load ptr, ptr %7, align 8, !tbaa !49
  %44 = getelementptr inbounds nuw %struct.Agedge_s, ptr %43, i32 0, i32 3
  %45 = load ptr, ptr %44, align 8, !tbaa !51
  %46 = call i32 @getval(ptr noundef %45)
  %47 = icmp ne i32 %46, 0
  br i1 %47, label %55, label %48

48:                                               ; preds = %42
  %49 = load ptr, ptr %7, align 8, !tbaa !49
  %50 = getelementptr inbounds nuw %struct.Agedge_s, ptr %49, i32 0, i32 3
  %51 = load ptr, ptr %50, align 8, !tbaa !51
  %52 = load i32, ptr %5, align 4, !tbaa !4
  %53 = load ptr, ptr %6, align 8, !tbaa !29
  %54 = call i32 @label(ptr noundef %51, i32 noundef %52, ptr noundef %53)
  store i32 %54, ptr %5, align 4, !tbaa !4
  br label %55

55:                                               ; preds = %48, %42
  br label %56

56:                                               ; preds = %55
  %57 = load ptr, ptr %4, align 8, !tbaa !26
  %58 = getelementptr inbounds nuw %struct.Agnode_s, ptr %57, i32 0, i32 1
  %59 = load ptr, ptr %58, align 8, !tbaa !48
  %60 = load ptr, ptr %7, align 8, !tbaa !49
  %61 = load ptr, ptr %4, align 8, !tbaa !26
  %62 = call ptr @agnxtedge(ptr noundef %59, ptr noundef %60, ptr noundef %61)
  store ptr %62, ptr %7, align 8, !tbaa !49
  br label %16, !llvm.loop !58

63:                                               ; preds = %16
  %64 = load i32, ptr %5, align 4, !tbaa !4
  call void @llvm.lifetime.end.p0(i64 8, ptr %7) #11
  ret i32 %64
}