; Function Attrs: nounwind uwtable
define internal fastcc range(i32 -2147483647, -2147483648) i32 @label(ptr noundef %0, i32 noundef %1, ptr noundef nonnull captures(none) %2) unnamed_addr #8 {
  %4 = getelementptr i8, ptr %0, i64 16
  %.val21 = load ptr, ptr %4, align 8, !tbaa !21
  %5 = getelementptr inbounds nuw i8, ptr %.val21, i64 16
  store i32 1, ptr %5, align 8, !tbaa !32
  %6 = add nsw i32 %1, 1
  %7 = getelementptr inbounds nuw i8, ptr %0, i64 24
  %8 = load ptr, ptr %7, align 8, !tbaa !46
  %9 = tail call ptr @agfstedge(ptr noundef %8, ptr noundef %0) #14
  %.not22 = icmp eq ptr %9, null
  br i1 %.not22, label %._crit_edge, label %.lr.ph

.lr.ph:                                           ; preds = %3, %26
  %.024 = phi ptr [ %28, %26 ], [ %9, %3 ]
  %.01823 = phi i32 [ %.119, %26 ], [ %6, %3 ]
  %10 = load i32, ptr %2, align 4, !tbaa !9
  %11 = add nsw i32 %10, 1
  store i32 %11, ptr %2, align 4, !tbaa !9
  %12 = getelementptr inbounds nuw i8, ptr %.024, i64 56
  %13 = load ptr, ptr %12, align 8, !tbaa !47
  %14 = icmp eq ptr %13, %0
  br i1 %14, label %15, label %20

15:                                               ; preds = %.lr.ph
  %16 = load i32, ptr %.024, align 8
  %17 = and i32 %16, 3
  %18 = icmp eq i32 %17, 3
  %.v = select i1 %18, i64 -64, i64 64
  %19 = getelementptr inbounds i8, ptr %.024, i64 %.v
  %.phi.trans.insert = getelementptr inbounds nuw i8, ptr %19, i64 56
  %.pre = load ptr, ptr %.phi.trans.insert, align 8, !tbaa !47
  br label %20

20:                                               ; preds = %15, %.lr.ph
  %21 = phi ptr [ %.pre, %15 ], [ %13, %.lr.ph ]
  %.1 = phi ptr [ %19, %15 ], [ %.024, %.lr.ph ]
  %22 = getelementptr i8, ptr %21, i64 16
  %.val = load ptr, ptr %22, align 8, !tbaa !21
  %23 = getelementptr i8, ptr %.val, i64 16
  %.val.val = load i32, ptr %23, align 8, !tbaa !32
  %.not20 = icmp eq i32 %.val.val, 0
  br i1 %.not20, label %24, label %26

24:                                               ; preds = %20
  %25 = tail call fastcc i32 @label(ptr noundef nonnull %21, i32 noundef %.01823, ptr noundef %2)
  br label %26

26:                                               ; preds = %20, %24
  %.119 = phi i32 [ %.01823, %20 ], [ %25, %24 ]
  %27 = load ptr, ptr %7, align 8, !tbaa !46
  %28 = tail call ptr @agnxtedge(ptr noundef %27, ptr noundef nonnull %.1, ptr noundef nonnull %0) #14
  %.not = icmp eq ptr %28, null
  br i1 %.not, label %._crit_edge, label %.lr.ph, !llvm.loop !62

._crit_edge:                                      ; preds = %26, %3
  %.018.lcssa = phi i32 [ %6, %3 ], [ %.119, %26 ]
  ret i32 %.018.lcssa
}